target datalayout = "e-m:e-p270:32:32-p271:32:32-p272:64:64-i64:64-i128:128-f80:128-n8:16:32:64-S128"
target triple = "x86_64-pc-linux-gnu"

%struct.H5B_class_t = type { i32, i64, ptr, ptr, ptr, ptr, ptr, ptr, i8, i8, i32, ptr, ptr, ptr, ptr }
%struct.H5O_stab_t = type { i64, i64 }
%struct.H5O_loc_t = type { ptr, i64, i8 }
%struct.H5G_bt_common_t = type { ptr, ptr, i64 }
%struct.H5O_link_t = type { i32, i8, i64, i32, ptr, %union.anon }
%union.anon = type { %struct.H5O_link_ud_t }
%struct.H5O_link_ud_t = type { ptr, i64 }
%struct.H5G_bt_rm_t = type { %struct.H5G_bt_common_t, ptr }

@H5B_SNODE = external global [1 x %struct.H5B_class_t], align 16
@.str = private unnamed_addr constant [101 x i8] c"generated/home/dtcxzyw/WorkSpace/Projects/compilers/llvm-opt-benchmark/bench/hdf5/hdf5/src/H5Gstab.c\00", align 1
@H5E_SYM_g = external global i64, align 8
@H5E_CANTINIT_g = external global i64, align 8
@H5E_PROTECT_g = external global i64, align 8
@.str.3 = private unnamed_addr constant [36 x i8] c"unable to protect symbol table heap\00", align 1
@.str.6 = private unnamed_addr constant [38 x i8] c"unable to unprotect symbol table heap\00", align 1
@H5E_BADMESG_g = external global i64, align 8
@.str.10 = private unnamed_addr constant [19 x i8] c"not a symbol table\00", align 1
@.str.12 = private unnamed_addr constant [23 x i8] c"unable to remove entry\00", align 1
@__func__.H5G__stab_remove_by_idx = private unnamed_addr constant [24 x i8] c"H5G__stab_remove_by_idx\00", align 1
@H5E_CANTGET_g = external global i64, align 8
@.str.13 = private unnamed_addr constant [27 x i8] c"can't get link information\00", align 1

; Function Attrs: nounwind uwtable
define i32 @H5G__stab_remove_by_idx(ptr noundef %0, ptr noundef %1, i32 noundef %2, i64 noundef %3) #0 {
  %5 = alloca ptr, align 8
  %6 = alloca ptr, align 8
  %7 = alloca i32, align 4
  %8 = alloca i64, align 8
  %9 = alloca ptr, align 8
  %10 = alloca %struct.H5O_stab_t, align 8
  %11 = alloca %struct.H5G_bt_rm_t, align 8
  %12 = alloca %struct.H5O_link_t, align 8
  %13 = alloca i8, align 1
  %14 = alloca i32, align 4
  %15 = alloca i8, align 1
  store ptr %0, ptr %5, align 8
  store ptr %1, ptr %6, align 8
  store i32 %2, ptr %7, align 4
  store i64 %3, ptr %8, align 8
  store ptr null, ptr %9, align 8
  store i8 0, ptr %13, align 1
  store i32 0, ptr %14, align 4
  store i8 0, ptr %15, align 1
  %16 = load ptr, ptr %5, align 8
  %17 = load i32, ptr %7, align 4
  %18 = load i64, ptr %8, align 8
  %19 = call i32 @H5G__stab_lookup_by_idx(ptr noundef %16, i32 noundef %17, i64 noundef %18, ptr noundef %12)
  %20 = icmp slt i32 %19, 0
  br i1 %20, label %21, label %36

21:                                               ; preds = %4
  br label %22

22:                                               ; preds = %21
  br label %23

23:                                               ; preds = %22
  br label %24

24:                                               ; preds = %23
  %25 = load i64, ptr @H5E_SYM_g, align 8
  %26 = load i64, ptr @H5E_CANTGET_g, align 8
  %27 = call i32 (ptr, ptr, i32, i64, i64, ptr, ...) @H5E_printf_stack(ptr noundef @.str, ptr noundef @__func__.H5G__stab_remove_by_idx, i32 noundef 374, i64 noundef %25, i64 noundef %26, ptr noundef @.str.13)
  br label %28

28:                                               ; preds = %24
  store i8 1, ptr %15, align 1
  %29 = load i8, ptr %15, align 1
  %30 = trunc i8 %29 to i1
  %31 = zext i1 %30 to i8
  store i8 %31, ptr %15, align 1
  br label %32

32:                                               ; preds = %28
  br label %33

33:                                               ; preds = %32
  store i32 -1, ptr %14, align 4
  br label %115

34:                                               ; No predecessors!
  br label %35

35:                                               ; preds = %34
  br label %36

36:                                               ; preds = %35, %4
  store i8 1, ptr %13, align 1
  %37 = load ptr, ptr %5, align 8
  %38 = call ptr @H5O_msg_read(ptr noundef %37, i32 noundef 17, ptr noundef %10)
  %39 = icmp eq ptr null, %38
  br i1 %39, label %40, label %55

40:                                               ; preds = %36
  br label %41

41:                                               ; preds = %40
  br label %42

42:                                               ; preds = %41
  br label %43

43:                                               ; preds = %42
  %44 = load i64, ptr @H5E_SYM_g, align 8
  %45 = load i64, ptr @H5E_BADMESG_g, align 8
  %46 = call i32 (ptr, ptr, i32, i64, i64, ptr, ...) @H5E_printf_stack(ptr noundef @.str, ptr noundef @__func__.H5G__stab_remove_by_idx, i32 noundef 379, i64 noundef %44, i64 noundef %45, ptr noundef @.str.10)
  br label %47

47:                                               ; preds = %43
  store i8 1, ptr %15, align 1
  %48 = load i8, ptr %15, align 1
  %49 = trunc i8 %48 to i1
  %50 = zext i1 %49 to i8
  store i8 %50, ptr %15, align 1
  br label %51

51:                                               ; preds = %47
  br label %52

52:                                               ; preds = %51
  store i32 -1, ptr %14, align 4
  br label %115

53:                                               ; No predecessors!
  br label %54

54:                                               ; preds = %53
  br label %55

55:                                               ; preds = %54, %36
  %56 = load ptr, ptr %5, align 8
  %57 = getelementptr inbounds %struct.H5O_loc_t, ptr %56, i32 0, i32 0
  %58 = load ptr, ptr %57, align 8
  %59 = getelementptr inbounds %struct.H5O_stab_t, ptr %10, i32 0, i32 1
  %60 = load i64, ptr %59, align 8
  %61 = call ptr @H5HL_protect(ptr noundef %58, i64 noundef %60, i32 noundef 0)
  store ptr %61, ptr %9, align 8
  %62 = icmp eq ptr null, %61
  br i1 %62, label %63, label %78

63:                                               ; preds = %55
  br label %64

64:                                               ; preds = %63
  br label %65

65:                                               ; preds = %64
  br label %66

66:                                               ; preds = %65
  %67 = load i64, ptr @H5E_SYM_g, align 8
  %68 = load i64, ptr @H5E_PROTECT_g, align 8
  %69 = call i32 (ptr, ptr, i32, i64, i64, ptr, ...) @H5E_printf_stack(ptr noundef @.str, ptr noundef @__func__.H5G__stab_remove_by_idx, i32 noundef 383, i64 noundef %67, i64 noundef %68, ptr noundef @.str.3)
  br label %70

70:                                               ; preds = %66
  store i8 1, ptr %15, align 1
  %71 = load i8, ptr %15, align 1
  %72 = trunc i8 %71 to i1
  %73 = zext i1 %72 to i8
  store i8 %73, ptr %15, align 1
  br label %74

74:                                               ; preds = %70
  br label %75

75:                                               ; preds = %74
  store i32 -1, ptr %14, align 4
  br label %115

76:                                               ; No predecessors!
  br label %77

77:                                               ; preds = %76
  br label %78

78:                                               ; preds = %77, %55
  %79 = getelementptr inbounds %struct.H5O_link_t, ptr %12, i32 0, i32 4
  %80 = load ptr, ptr %79, align 8
  %81 = getelementptr inbounds %struct.H5G_bt_rm_t, ptr %11, i32 0, i32 0
  %82 = getelementptr inbounds %struct.H5G_bt_common_t, ptr %81, i32 0, i32 0
  store ptr %80, ptr %82, align 8
  %83 = load ptr, ptr %9, align 8
  %84 = getelementptr inbounds %struct.H5G_bt_rm_t, ptr %11, i32 0, i32 0
  %85 = getelementptr inbounds %struct.H5G_bt_common_t, ptr %84, i32 0, i32 1
  store ptr %83, ptr %85, align 8
  %86 = load ptr, ptr %9, align 8
  %87 = call i64 @H5HL_heap_get_size(ptr noundef %86)
  %88 = getelementptr inbounds %struct.H5G_bt_rm_t, ptr %11, i32 0, i32 0
  %89 = getelementptr inbounds %struct.H5G_bt_common_t, ptr %88, i32 0, i32 2
  store i64 %87, ptr %89, align 8
  %90 = load ptr, ptr %6, align 8
  %91 = getelementptr inbounds %struct.H5G_bt_rm_t, ptr %11, i32 0, i32 1
  store ptr %90, ptr %91, align 8
  %92 = load ptr, ptr %5, align 8
  %93 = getelementptr inbounds %struct.H5O_loc_t, ptr %92, i32 0, i32 0
  %94 = load ptr, ptr %93, align 8
  %95 = getelementptr inbounds %struct.H5O_stab_t, ptr %10, i32 0, i32 0
  %96 = load i64, ptr %95, align 8
  %97 = call i32 @H5B_remove(ptr noundef %94, ptr noundef @H5B_SNODE, i64 noundef %96, ptr noundef %11)
  %98 = icmp slt i32 %97, 0
  br i1 %98, label %99, label %114

99:                                               ; preds = %78
  br label %100

100:                                              ; preds = %99
  br label %101

101:                                              ; preds = %100
  br label %102

102:                                              ; preds = %101
  %103 = load i64, ptr @H5E_SYM_g, align 8
  %104 = load i64, ptr @H5E_CANTINIT_g, align 8
  %105 = call i32 (ptr, ptr, i32, i64, i64, ptr, ...) @H5E_printf_stack(ptr noundef @.str, ptr noundef @__func__.H5G__stab_remove_by_idx, i32 noundef 393, i64 noundef %103, i64 noundef %104, ptr noundef @.str.12)
  br label %106

106:                                              ; preds = %102
  store i8 1, ptr %15, align 1
  %107 = load i8, ptr %15, align 1
  %108 = trunc i8 %107 to i1
  %109 = zext i1 %108 to i8
  store i8 %109, ptr %15, align 1
  br label %110

110:                                              ; preds = %106
  br label %111

111:                                              ; preds = %110
  store i32 -1, ptr %14, align 4
  br label %115

112:                                              ; No predecessors!
  br label %113

113:                                              ; preds = %112
  br label %114

114:                                              ; preds = %113, %78
  br label %115

115:                                              ; preds = %114, %111, %75, %52, %33
  %116 = load ptr, ptr %9, align 8
  %117 = icmp ne ptr %116, null
  br i1 %117, label %118, label %135

118:                                              ; preds = %115
  %119 = load ptr, ptr %9, align 8
  %120 = call i32 @H5HL_unprotect(ptr noundef %119)
  %121 = icmp slt i32 %120, 0
  br i1 %121, label %122, label %135

122:                                              ; preds = %118
  br label %123

123:                                              ; preds = %122
  br label %124

124:                                              ; preds = %123
  br label %125

125:                                              ; preds = %124
  %126 = load i64, ptr @H5E_SYM_g, align 8
  %127 = load i64, ptr @H5E_PROTECT_g, align 8
  %128 = call i32 (ptr, ptr, i32, i64, i64, ptr, ...) @H5E_printf_stack(ptr noundef @.str, ptr noundef @__func__.H5G__stab_remove_by_idx, i32 noundef 398, i64 noundef %126, i64 noundef %127, ptr noundef @.str.6)
  br label %129

129:                                              ; preds = %125
  store i8 1, ptr %15, align 1
  %130 = load i8, ptr %15, align 1
  %131 = trunc i8 %130 to i1
  %132 = zext i1 %131 to i8
  store i8 %132, ptr %15, align 1
  br label %133

133:                                              ; preds = %129
  store i32 -1, ptr %14, align 4
  br label %134

134:                                              ; preds = %133
  br label %135

135:                                              ; preds = %134, %118, %115
  %136 = load i8, ptr %13, align 1
  %137 = trunc i8 %136 to i1
  br i1 %137, label %138, label %140

138:                                              ; preds = %135
  %139 = call i32 @H5O_msg_reset(i32 noundef 6, ptr noundef %12)
  br label %140

140:                                              ; preds = %138, %135
  %141 = load i32, ptr %14, align 4
  ret i32 %141
}