; Function Attrs: nounwind uwtable
define range(i32 -1, 1) i32 @H5G__stab_remove_by_idx(ptr noundef %0, ptr noundef %1, i32 noundef %2, i64 noundef %3) local_unnamed_addr #0 {
  %5 = alloca %struct.H5O_stab_t, align 8
  %6 = alloca %struct.H5G_bt_rm_t, align 8
  %7 = alloca %struct.H5O_link_t, align 8
  %8 = call i32 @H5G__stab_lookup_by_idx(ptr noundef %0, i32 noundef %2, i64 noundef %3, ptr noundef nonnull %7)
  %9 = icmp sgt i32 %8, -1
  br i1 %9, label %10, label %49

10:                                               ; preds = %4
  %11 = call ptr @H5O_msg_read(ptr noundef %0, i32 noundef 17, ptr noundef nonnull %5) #6
  %12 = icmp eq ptr %11, null
  br i1 %12, label %13, label %17

13:                                               ; preds = %10
  %14 = load i64, ptr @H5E_SYM_g, align 8
  %15 = load i64, ptr @H5E_BADMESG_g, align 8
  %16 = call i32 (ptr, ptr, i32, i64, i64, ptr, ...) @H5E_printf_stack(ptr noundef nonnull @.str, ptr noundef nonnull @__func__.H5G__stab_remove_by_idx, i32 noundef 379, i64 noundef %14, i64 noundef %15, ptr noundef nonnull @.str.10) #6
  br label %.thread25

17:                                               ; preds = %10
  %18 = load ptr, ptr %0, align 8
  %19 = getelementptr inbounds i8, ptr %5, i64 8
  %20 = load i64, ptr %19, align 8
  %21 = call ptr @H5HL_protect(ptr noundef %18, i64 noundef %20, i32 noundef 0) #6
  %22 = icmp eq ptr %21, null
  br i1 %22, label %23, label %27

23:                                               ; preds = %17
  %24 = load i64, ptr @H5E_SYM_g, align 8
  %25 = load i64, ptr @H5E_PROTECT_g, align 8
  %26 = call i32 (ptr, ptr, i32, i64, i64, ptr, ...) @H5E_printf_stack(ptr noundef nonnull @.str, ptr noundef nonnull @__func__.H5G__stab_remove_by_idx, i32 noundef 383, i64 noundef %24, i64 noundef %25, ptr noundef nonnull @.str.3) #6
  br label %.thread25

27:                                               ; preds = %17
  %28 = getelementptr inbounds i8, ptr %7, i64 24
  %29 = load ptr, ptr %28, align 8
  store ptr %29, ptr %6, align 8
  %30 = getelementptr inbounds i8, ptr %6, i64 8
  store ptr %21, ptr %30, align 8
  %31 = call i64 @H5HL_heap_get_size(ptr noundef nonnull %21) #6
  %32 = getelementptr inbounds i8, ptr %6, i64 16
  store i64 %31, ptr %32, align 8
  %33 = getelementptr inbounds i8, ptr %6, i64 24
  store ptr %1, ptr %33, align 8
  %34 = load ptr, ptr %0, align 8
  %35 = load i64, ptr %5, align 8
  %36 = call i32 @H5B_remove(ptr noundef %34, ptr noundef nonnull @H5B_SNODE, i64 noundef %35, ptr noundef nonnull %6) #6
  %37 = icmp slt i32 %36, 0
  br i1 %37, label %38, label %42

38:                                               ; preds = %27
  %39 = load i64, ptr @H5E_SYM_g, align 8
  %40 = load i64, ptr @H5E_CANTINIT_g, align 8
  %41 = call i32 (ptr, ptr, i32, i64, i64, ptr, ...) @H5E_printf_stack(ptr noundef nonnull @.str, ptr noundef nonnull @__func__.H5G__stab_remove_by_idx, i32 noundef 393, i64 noundef %39, i64 noundef %40, ptr noundef nonnull @.str.12) #6
  br label %42

42:                                               ; preds = %38, %27
  %.0 = phi i32 [ -1, %38 ], [ 0, %27 ]
  %43 = call i32 @H5HL_unprotect(ptr noundef nonnull %21) #6
  %44 = icmp slt i32 %43, 0
  br i1 %44, label %45, label %.thread25

45:                                               ; preds = %42
  %46 = load i64, ptr @H5E_SYM_g, align 8
  %47 = load i64, ptr @H5E_PROTECT_g, align 8
  %48 = call i32 (ptr, ptr, i32, i64, i64, ptr, ...) @H5E_printf_stack(ptr noundef nonnull @.str, ptr noundef nonnull @__func__.H5G__stab_remove_by_idx, i32 noundef 398, i64 noundef %46, i64 noundef %47, ptr noundef nonnull @.str.6) #6
  br label %.thread25

49:                                               ; preds = %4
  %50 = load i64, ptr @H5E_SYM_g, align 8
  %51 = load i64, ptr @H5E_CANTGET_g, align 8
  %52 = call i32 (ptr, ptr, i32, i64, i64, ptr, ...) @H5E_printf_stack(ptr noundef nonnull @.str, ptr noundef nonnull @__func__.H5G__stab_remove_by_idx, i32 noundef 374, i64 noundef %50, i64 noundef %51, ptr noundef nonnull @.str.13) #6
  br label %54

.thread25:                                        ; preds = %23, %13, %42, %45
  %.128 = phi i32 [ %.0, %42 ], [ -1, %45 ], [ -1, %13 ], [ -1, %23 ]
  %53 = call i32 @H5O_msg_reset(i32 noundef 6, ptr noundef nonnull %7) #6
  br label %54

54:                                               ; preds = %49, %.thread25
  %.127 = phi i32 [ %.128, %.thread25 ], [ -1, %49 ]
  ret i32 %.127
}